target datalayout = "e-m:e-p270:32:32-p271:32:32-p272:64:64-i64:64-i128:128-f80:128-n8:16:32:64-S128"
target triple = "x86_64-unknown-linux-gnu"

%class.b3AngularLimit = type <{ float, float, float, float, float, float, float, i8, [3 x i8] }>

; Function Attrs: mustprogress nounwind uwtable
define linkonce_odr dso_local noundef float @_Z6b3Fmodff(float noundef %x, float noundef %y) #1 comdat {
entry:
  %x.addr = alloca float, align 4
  %y.addr = alloca float, align 4
  store float %x, ptr %x.addr, align 4
  store float %y, ptr %y.addr, align 4
  %0 = load float, ptr %x.addr, align 4
  %1 = load float, ptr %y.addr, align 4
  %call = call float @fmodf(float noundef %0, float noundef %1) #5
  ret float %call
}

; Function Attrs: mustprogress uwtable
define dso_local noundef float @_ZNK14b3AngularLimit6getLowEv(ptr noundef nonnull align 4 dereferenceable(29) %this) #0 align 2 {
entry:
  %this.addr = alloca ptr, align 8
  store ptr %this, ptr %this.addr, align 8
  %this1 = load ptr, ptr %this.addr, align 8
  %m_center = getelementptr inbounds %class.b3AngularLimit, ptr %this1, i32 0, i32 0
  %0 = load float, ptr %m_center, align 4
  %m_halfRange = getelementptr inbounds %class.b3AngularLimit, ptr %this1, i32 0, i32 1
  %1 = load float, ptr %m_halfRange, align 4
  %sub = fsub float %0, %1
  %call = call noundef float @_Z16b3NormalizeAnglef(float noundef %sub)
  ret float %call
}

; Function Attrs: mustprogress uwtable
define dso_local noundef float @_ZNK14b3AngularLimit7getHighEv(ptr noundef nonnull align 4 dereferenceable(29) %this) #0 align 2 {
entry:
  %this.addr = alloca ptr, align 8
  store ptr %this, ptr %this.addr, align 8
  %this1 = load ptr, ptr %this.addr, align 8
  %m_center = getelementptr inbounds %class.b3AngularLimit, ptr %this1, i32 0, i32 0
  %0 = load float, ptr %m_center, align 4
  %m_halfRange = getelementptr inbounds %class.b3AngularLimit, ptr %this1, i32 0, i32 1
  %1 = load float, ptr %m_halfRange, align 4
  %add = fadd float %0, %1
  %call = call noundef float @_Z16b3NormalizeAnglef(float noundef %add)
  ret float %call
}

; Function Attrs: mustprogress nounwind uwtable
define linkonce_odr dso_local noundef zeroext i1 @_Z7b3Equalff(float noundef %a, float noundef %eps) #1 comdat {
entry:
  %a.addr = alloca float, align 4
  %eps.addr = alloca float, align 4
  store float %a, ptr %a.addr, align 4
  store float %eps, ptr %eps.addr, align 4
  %0 = load float, ptr %a.addr, align 4
  %1 = load float, ptr %eps.addr, align 4
  %cmp = fcmp ole float %0, %1
  br i1 %cmp, label %land.rhs, label %land.end

land.rhs:                                         ; preds = %entry
  %2 = load float, ptr %a.addr, align 4
  %3 = load float, ptr %eps.addr, align 4
  %fneg = fneg float %3
  %cmp1 = fcmp olt float %2, %fneg
  %lnot = xor i1 %cmp1, true
  br label %land.end

land.end:                                         ; preds = %land.rhs, %entry
  %4 = phi i1 [ false, %entry ], [ %lnot, %land.rhs ]
  ret i1 %4
}

; Function Attrs: mustprogress uwtable
define linkonce_odr dso_local noundef float @_Z16b3NormalizeAnglef(float noundef %angleInRadians) #0 comdat {
entry:
  %retval = alloca float, align 4
  %angleInRadians.addr = alloca float, align 4
  store float %angleInRadians, ptr %angleInRadians.addr, align 4
  %0 = load float, ptr %angleInRadians.addr, align 4
  %call = call noundef float @_Z6b3Fmodff(float noundef %0, float noundef 0x401921FB60000000)
  store float %call, ptr %angleInRadians.addr, align 4
  %1 = load float, ptr %angleInRadians.addr, align 4
  %cmp = fcmp olt float %1, 0xC00921FB60000000
  br i1 %cmp, label %if.then, label %if.else

if.then:                                          ; preds = %entry
  %2 = load float, ptr %angleInRadians.addr, align 4
  %add = fadd float %2, 0x401921FB60000000
  store float %add, ptr %retval, align 4
  br label %return

if.else:                                          ; preds = %entry
  %3 = load float, ptr %angleInRadians.addr, align 4
  %cmp1 = fcmp ogt float %3, 0x400921FB60000000
  br i1 %cmp1, label %if.then2, label %if.else3

if.then2:                                         ; preds = %if.else
  %4 = load float, ptr %angleInRadians.addr, align 4
  %sub = fsub float %4, 0x401921FB60000000
  store float %sub, ptr %retval, align 4
  br label %return

if.else3:                                         ; preds = %if.else
  %5 = load float, ptr %angleInRadians.addr, align 4
  store float %5, ptr %retval, align 4
  br label %return

return:                                           ; preds = %if.else3, %if.then2, %if.then
  %6 = load float, ptr %retval, align 4
  ret float %6
}

; Function Attrs: mustprogress uwtable
define dso_local void @_ZNK14b3AngularLimit3fitERf(ptr noundef nonnull align 4 dereferenceable(29) %this, ptr noundef nonnull align 4 dereferenceable(4) %angle) #0 align 2 {
entry:
  %this.addr = alloca ptr, align 8
  %angle.addr = alloca ptr, align 8
  %relativeAngle = alloca float, align 4
  store ptr %this, ptr %this.addr, align 8
  store ptr %angle, ptr %angle.addr, align 8
  %this1 = load ptr, ptr %this.addr, align 8
  %m_halfRange = getelementptr inbounds %class.b3AngularLimit, ptr %this1, i32 0, i32 1
  %0 = load float, ptr %m_halfRange, align 4
  %cmp = fcmp ogt float %0, 0.000000e+00
  br i1 %cmp, label %if.then, label %if.end10

if.then:                                          ; preds = %entry
  %1 = load ptr, ptr %angle.addr, align 8
  %2 = load float, ptr %1, align 4
  %m_center = getelementptr inbounds %class.b3AngularLimit, ptr %this1, i32 0, i32 0
  %3 = load float, ptr %m_center, align 4
  %sub = fsub float %2, %3
  %call = call noundef float @_Z16b3NormalizeAnglef(float noundef %sub)
  store float %call, ptr %relativeAngle, align 4
  %4 = load float, ptr %relativeAngle, align 4
  %m_halfRange2 = getelementptr inbounds %class.b3AngularLimit, ptr %this1, i32 0, i32 1
  %5 = load float, ptr %m_halfRange2, align 4
  %call3 = call noundef zeroext i1 @_Z7b3Equalff(float noundef %4, float noundef %5)
  br i1 %call3, label %if.end9, label %if.then4

if.then4:                                         ; preds = %if.then
  %6 = load float, ptr %relativeAngle, align 4
  %cmp5 = fcmp ogt float %6, 0.000000e+00
  br i1 %cmp5, label %if.then6, label %if.else

if.then6:                                         ; preds = %if.then4
  %call7 = call noundef float @_ZNK14b3AngularLimit7getHighEv(ptr noundef nonnull align 4 dereferenceable(29) %this1)
  %7 = load ptr, ptr %angle.addr, align 8
  store float %call7, ptr %7, align 4
  br label %if.end

if.else:                                          ; preds = %if.then4
  %call8 = call noundef float @_ZNK14b3AngularLimit6getLowEv(ptr noundef nonnull align 4 dereferenceable(29) %this1)
  %8 = load ptr, ptr %angle.addr, align 8
  store float %call8, ptr %8, align 4
  br label %if.end

if.end:                                           ; preds = %if.else, %if.then6
  br label %if.end9

if.end9:                                          ; preds = %if.end, %if.then
  br label %if.end10

if.end10:                                         ; preds = %if.end9, %entry
  ret void
}